; Function Attrs: mustprogress nofree norecurse nosync nounwind willreturn memory(readwrite, inaccessiblemem: none) uwtable
define dso_local void @_ZN4node10StreamBase14SetWriteResultERKNS_17StreamWriteResultE(ptr nocapture noundef nonnull readonly align 8 dereferenceable(64) %this, ptr nocapture noundef nonnull readonly align 8 dereferenceable(32) %res) local_unnamed_addr #7 align 2 {
entry:
  %bytes = getelementptr inbounds i8, ptr %res, i64 16
  %0 = load i64, ptr %bytes, align 8
  %conv = trunc i64 %0 to i32
  %env_ = getelementptr inbounds i8, ptr %this, i64 32
  %1 = load ptr, ptr %env_, align 8
  %buffer_.i.i = getelementptr inbounds i8, ptr %1, i64 2000
  %2 = load ptr, ptr %buffer_.i.i, align 8
  %arrayidx.i.i = getelementptr inbounds i8, ptr %2, i64 8
  store i32 %conv, ptr %arrayidx.i.i, align 4
  %3 = load i8, ptr %res, align 8
  %4 = and i8 %3, 1
  %conv5 = zext nneg i8 %4 to i32
  %5 = load ptr, ptr %env_, align 8
  %buffer_.i.i5 = getelementptr inbounds i8, ptr %5, i64 2000
  %6 = load ptr, ptr %buffer_.i.i5, align 8
  %arrayidx.i.i6 = getelementptr inbounds i8, ptr %6, i64 12
  store i32 %conv5, ptr %arrayidx.i.i6, align 4
  ret void
}